; Function Attrs: nounwind uwtable
define internal i32 @dissect_smux(ptr noundef %0, ptr noundef %1, ptr noundef %2, ptr readnone captures(none) %3) #0 {
  %5 = alloca %struct._asn1_ctx_t, align 8
  %6 = getelementptr inbounds nuw i8, ptr %1, i64 408
  %7 = load ptr, ptr %6, align 8
  %8 = tail call ptr @next_tvb_list_new(ptr noundef %7) #11
  store ptr %8, ptr @var_list, align 8
  %9 = getelementptr inbounds nuw i8, ptr %1, i64 8
  %10 = load ptr, ptr %9, align 8
  tail call void @col_set_str(ptr noundef %10, i32 noundef 34, ptr noundef nonnull @.str.375) #11
  %11 = load i32, ptr @proto_smux, align 4
  %12 = tail call ptr @proto_tree_add_item(ptr noundef %2, i32 noundef %11, ptr noundef %0, i32 noundef 0, i32 noundef -1, i32 noundef 0) #11
  %13 = load i32, ptr @ett_smux, align 4
  %14 = tail call ptr @proto_item_add_subtree(ptr noundef %12, i32 noundef %13) #11
  call void @llvm.lifetime.start.p0(i64 208, ptr nonnull %5)
  call void @asn1_ctx_init(ptr noundef nonnull %5, i32 noundef 0, i1 noundef zeroext true, ptr noundef %1) #11
  %15 = load i32, ptr @hf_snmp_SMUX_PDUs_PDU, align 4
  %16 = getelementptr inbounds nuw i8, ptr %5, i64 16
  %17 = load ptr, ptr %16, align 8
  %18 = call fastcc ptr @snmp_find_conversation_and_get_conv_data(ptr noundef %17)
  %19 = getelementptr inbounds nuw i8, ptr %5, i64 48
  store ptr %18, ptr %19, align 8
  %20 = load i32, ptr @ett_snmp_SMUX_PDUs, align 4
  %21 = call i32 @dissect_ber_choice(ptr noundef nonnull %5, ptr noundef %14, ptr noundef %0, i32 noundef 0, ptr noundef nonnull @SMUX_PDUs_choice, i32 noundef %15, i32 noundef %20, ptr noundef null) #11
  call void @llvm.lifetime.end.p0(i64 208, ptr nonnull %5)
  ret i32 %21
}